target datalayout = "e-m:e-p270:32:32-p271:32:32-p272:64:64-i64:64-i128:128-f80:128-n8:16:32:64-S128"
target triple = "x86_64-unknown-linux-gnu"

%"class.icu_75::UVector32" = type { %"class.icu_75::UObject", i32, i32, i32, ptr }
%"class.icu_75::UObject" = type { ptr }

; Function Attrs: mustprogress nounwind uwtable
define internal noundef signext i8 @_ZL9U_FAILURE10UErrorCode(i32 noundef %code) #0 {
entry:
  %code.addr = alloca i32, align 4
  store i32 %code, ptr %code.addr, align 4
  %0 = load i32, ptr %code.addr, align 4
  %cmp = icmp sgt i32 %0, 0
  %conv = zext i1 %cmp to i8
  ret i8 %conv
}

; Function Attrs: mustprogress uwtable
define noundef signext i8 @_ZN6icu_759UVector3214expandCapacityEiR10UErrorCode(ptr noundef nonnull align 8 dereferenceable(32) %this, i32 noundef %minimumCapacity, ptr noundef nonnull align 4 dereferenceable(4) %status) #1 align 2 {
entry:
  %retval = alloca i8, align 1
  %this.addr = alloca ptr, align 8
  %minimumCapacity.addr = alloca i32, align 4
  %status.addr = alloca ptr, align 8
  %newCap = alloca i32, align 4
  %newElems = alloca ptr, align 8
  store ptr %this, ptr %this.addr, align 8
  store i32 %minimumCapacity, ptr %minimumCapacity.addr, align 4
  store ptr %status, ptr %status.addr, align 8
  %this1 = load ptr, ptr %this.addr, align 8
  %0 = load ptr, ptr %status.addr, align 8
  %1 = load i32, ptr %0, align 4
  %call = call noundef signext i8 @_ZL9U_FAILURE10UErrorCode(i32 noundef %1)
  %tobool = icmp ne i8 %call, 0
  br i1 %tobool, label %if.then, label %if.end

if.then:                                          ; preds = %entry
  store i8 0, ptr %retval, align 1
  br label %return

if.end:                                           ; preds = %entry
  %2 = load i32, ptr %minimumCapacity.addr, align 4
  %cmp = icmp slt i32 %2, 0
  br i1 %cmp, label %if.then2, label %if.end3

if.then2:                                         ; preds = %if.end
  %3 = load ptr, ptr %status.addr, align 8
  store i32 1, ptr %3, align 4
  store i8 0, ptr %retval, align 1
  br label %return

if.end3:                                          ; preds = %if.end
  %capacity = getelementptr inbounds %"class.icu_75::UVector32", ptr %this1, i32 0, i32 2
  %4 = load i32, ptr %capacity, align 4
  %5 = load i32, ptr %minimumCapacity.addr, align 4
  %cmp4 = icmp sge i32 %4, %5
  br i1 %cmp4, label %if.then5, label %if.end6

if.then5:                                         ; preds = %if.end3
  store i8 1, ptr %retval, align 1
  br label %return

if.end6:                                          ; preds = %if.end3
  %maxCapacity = getelementptr inbounds %"class.icu_75::UVector32", ptr %this1, i32 0, i32 3
  %6 = load i32, ptr %maxCapacity, align 8
  %cmp7 = icmp sgt i32 %6, 0
  br i1 %cmp7, label %land.lhs.true, label %if.end11

land.lhs.true:                                    ; preds = %if.end6
  %7 = load i32, ptr %minimumCapacity.addr, align 4
  %maxCapacity8 = getelementptr inbounds %"class.icu_75::UVector32", ptr %this1, i32 0, i32 3
  %8 = load i32, ptr %maxCapacity8, align 8
  %cmp9 = icmp sgt i32 %7, %8
  br i1 %cmp9, label %if.then10, label %if.end11

if.then10:                                        ; preds = %land.lhs.true
  %9 = load ptr, ptr %status.addr, align 8
  store i32 15, ptr %9, align 4
  store i8 0, ptr %retval, align 1
  br label %return

if.end11:                                         ; preds = %land.lhs.true, %if.end6
  %capacity12 = getelementptr inbounds %"class.icu_75::UVector32", ptr %this1, i32 0, i32 2
  %10 = load i32, ptr %capacity12, align 4
  %cmp13 = icmp sgt i32 %10, 1073741823
  br i1 %cmp13, label %if.then14, label %if.end15

if.then14:                                        ; preds = %if.end11
  %11 = load ptr, ptr %status.addr, align 8
  store i32 1, ptr %11, align 4
  store i8 0, ptr %retval, align 1
  br label %return

if.end15:                                         ; preds = %if.end11
  %capacity16 = getelementptr inbounds %"class.icu_75::UVector32", ptr %this1, i32 0, i32 2
  %12 = load i32, ptr %capacity16, align 4
  %mul = mul nsw i32 %12, 2
  store i32 %mul, ptr %newCap, align 4
  %13 = load i32, ptr %newCap, align 4
  %14 = load i32, ptr %minimumCapacity.addr, align 4
  %cmp17 = icmp slt i32 %13, %14
  br i1 %cmp17, label %if.then18, label %if.end19

if.then18:                                        ; preds = %if.end15
  %15 = load i32, ptr %minimumCapacity.addr, align 4
  store i32 %15, ptr %newCap, align 4
  br label %if.end19

if.end19:                                         ; preds = %if.then18, %if.end15
  %maxCapacity20 = getelementptr inbounds %"class.icu_75::UVector32", ptr %this1, i32 0, i32 3
  %16 = load i32, ptr %maxCapacity20, align 8
  %cmp21 = icmp sgt i32 %16, 0
  br i1 %cmp21, label %land.lhs.true22, label %if.end27

land.lhs.true22:                                  ; preds = %if.end19
  %17 = load i32, ptr %newCap, align 4
  %maxCapacity23 = getelementptr inbounds %"class.icu_75::UVector32", ptr %this1, i32 0, i32 3
  %18 = load i32, ptr %maxCapacity23, align 8
  %cmp24 = icmp sgt i32 %17, %18
  br i1 %cmp24, label %if.then25, label %if.end27

if.then25:                                        ; preds = %land.lhs.true22
  %maxCapacity26 = getelementptr inbounds %"class.icu_75::UVector32", ptr %this1, i32 0, i32 3
  %19 = load i32, ptr %maxCapacity26, align 8
  store i32 %19, ptr %newCap, align 4
  br label %if.end27

if.end27:                                         ; preds = %if.then25, %land.lhs.true22, %if.end19
  %20 = load i32, ptr %newCap, align 4
  %cmp28 = icmp sgt i32 %20, 536870911
  br i1 %cmp28, label %if.then29, label %if.end30

if.then29:                                        ; preds = %if.end27
  %21 = load ptr, ptr %status.addr, align 8
  store i32 1, ptr %21, align 4
  store i8 0, ptr %retval, align 1
  br label %return

if.end30:                                         ; preds = %if.end27
  %elements = getelementptr inbounds %"class.icu_75::UVector32", ptr %this1, i32 0, i32 4
  %22 = load ptr, ptr %elements, align 8
  %23 = load i32, ptr %newCap, align 4
  %conv = sext i32 %23 to i64
  %mul31 = mul i64 4, %conv
  %call32 = call ptr @uprv_realloc_75(ptr noundef %22, i64 noundef %mul31) #10
  store ptr %call32, ptr %newElems, align 8
  %24 = load ptr, ptr %newElems, align 8
  %cmp33 = icmp eq ptr %24, null
  br i1 %cmp33, label %if.then34, label %if.end35

if.then34:                                        ; preds = %if.end30
  %25 = load ptr, ptr %status.addr, align 8
  store i32 7, ptr %25, align 4
  store i8 0, ptr %retval, align 1
  br label %return

if.end35:                                         ; preds = %if.end30
  %26 = load ptr, ptr %newElems, align 8
  %elements36 = getelementptr inbounds %"class.icu_75::UVector32", ptr %this1, i32 0, i32 4
  store ptr %26, ptr %elements36, align 8
  %27 = load i32, ptr %newCap, align 4
  %capacity37 = getelementptr inbounds %"class.icu_75::UVector32", ptr %this1, i32 0, i32 2
  store i32 %27, ptr %capacity37, align 4
  store i8 1, ptr %retval, align 1
  br label %return

return:                                           ; preds = %if.end35, %if.then34, %if.then29, %if.then14, %if.then10, %if.then5, %if.then2, %if.then
  %28 = load i8, ptr %retval, align 1
  ret i8 %28
}

; Function Attrs: mustprogress uwtable
define void @_ZN6icu_759UVector327setSizeEi(ptr noundef nonnull align 8 dereferenceable(32) %this, i32 noundef %newSize) #1 align 2 {
entry:
  %this.addr = alloca ptr, align 8
  %newSize.addr = alloca i32, align 4
  %i = alloca i32, align 4
  %ec = alloca i32, align 4
  store ptr %this, ptr %this.addr, align 8
  store i32 %newSize, ptr %newSize.addr, align 4
  %this1 = load ptr, ptr %this.addr, align 8
  %0 = load i32, ptr %newSize.addr, align 4
  %cmp = icmp slt i32 %0, 0
  br i1 %cmp, label %if.then, label %if.end

if.then:                                          ; preds = %entry
  br label %return

if.end:                                           ; preds = %entry
  %1 = load i32, ptr %newSize.addr, align 4
  %count = getelementptr inbounds %"class.icu_75::UVector32", ptr %this1, i32 0, i32 1
  %2 = load i32, ptr %count, align 8
  %cmp2 = icmp sgt i32 %1, %2
  br i1 %cmp2, label %if.then3, label %if.end8

if.then3:                                         ; preds = %if.end
  store i32 0, ptr %ec, align 4
  %3 = load i32, ptr %newSize.addr, align 4
  %call = call noundef signext i8 @_ZN6icu_759UVector3214ensureCapacityEiR10UErrorCode(ptr noundef nonnull align 8 dereferenceable(32) %this1, i32 noundef %3, ptr noundef nonnull align 4 dereferenceable(4) %ec)
  %tobool = icmp ne i8 %call, 0
  br i1 %tobool, label %if.end5, label %if.then4

if.then4:                                         ; preds = %if.then3
  br label %return

if.end5:                                          ; preds = %if.then3
  %count6 = getelementptr inbounds %"class.icu_75::UVector32", ptr %this1, i32 0, i32 1
  %4 = load i32, ptr %count6, align 8
  store i32 %4, ptr %i, align 4
  br label %for.cond

for.cond:                                         ; preds = %for.inc, %if.end5
  %5 = load i32, ptr %i, align 4
  %6 = load i32, ptr %newSize.addr, align 4
  %cmp7 = icmp slt i32 %5, %6
  br i1 %cmp7, label %for.body, label %for.end

for.body:                                         ; preds = %for.cond
  %elements = getelementptr inbounds %"class.icu_75::UVector32", ptr %this1, i32 0, i32 4
  %7 = load ptr, ptr %elements, align 8
  %8 = load i32, ptr %i, align 4
  %idxprom = sext i32 %8 to i64
  %arrayidx = getelementptr inbounds i32, ptr %7, i64 %idxprom
  store i32 0, ptr %arrayidx, align 4
  br label %for.inc

for.inc:                                          ; preds = %for.body
  %9 = load i32, ptr %i, align 4
  %inc = add nsw i32 %9, 1
  store i32 %inc, ptr %i, align 4
  br label %for.cond, !llvm.loop !6

for.end:                                          ; preds = %for.cond
  br label %if.end8

if.end8:                                          ; preds = %for.end, %if.end
  %10 = load i32, ptr %newSize.addr, align 4
  %count9 = getelementptr inbounds %"class.icu_75::UVector32", ptr %this1, i32 0, i32 1
  store i32 %10, ptr %count9, align 8
  br label %return

return:                                           ; preds = %if.end8, %if.then4, %if.then
  ret void
}

; Function Attrs: mustprogress uwtable
define linkonce_odr noundef signext i8 @_ZN6icu_759UVector3214ensureCapacityEiR10UErrorCode(ptr noundef nonnull align 8 dereferenceable(32) %this, i32 noundef %minimumCapacity, ptr noundef nonnull align 4 dereferenceable(4) %status) #1 comdat align 2 {
entry:
  %retval = alloca i8, align 1
  %this.addr = alloca ptr, align 8
  %minimumCapacity.addr = alloca i32, align 4
  %status.addr = alloca ptr, align 8
  store ptr %this, ptr %this.addr, align 8
  store i32 %minimumCapacity, ptr %minimumCapacity.addr, align 4
  store ptr %status, ptr %status.addr, align 8
  %this1 = load ptr, ptr %this.addr, align 8
  %0 = load i32, ptr %minimumCapacity.addr, align 4
  %cmp = icmp sge i32 %0, 0
  br i1 %cmp, label %land.lhs.true, label %if.else

land.lhs.true:                                    ; preds = %entry
  %capacity = getelementptr inbounds %"class.icu_75::UVector32", ptr %this1, i32 0, i32 2
  %1 = load i32, ptr %capacity, align 4
  %2 = load i32, ptr %minimumCapacity.addr, align 4
  %cmp2 = icmp sge i32 %1, %2
  br i1 %cmp2, label %if.then, label %if.else

if.then:                                          ; preds = %land.lhs.true
  store i8 1, ptr %retval, align 1
  br label %return

if.else:                                          ; preds = %land.lhs.true, %entry
  %3 = load i32, ptr %minimumCapacity.addr, align 4
  %4 = load ptr, ptr %status.addr, align 8
  %call = call noundef signext i8 @_ZN6icu_759UVector3214expandCapacityEiR10UErrorCode(ptr noundef nonnull align 8 dereferenceable(32) %this1, i32 noundef %3, ptr noundef nonnull align 4 dereferenceable(4) %4)
  store i8 %call, ptr %retval, align 1
  br label %return

return:                                           ; preds = %if.else, %if.then
  %5 = load i8, ptr %retval, align 1
  ret i8 %5
}

; Function Attrs: mustprogress uwtable
define void @_ZN6icu_759UVector326assignERKS0_R10UErrorCode(ptr noundef nonnull align 8 dereferenceable(32) %this, ptr noundef nonnull align 8 dereferenceable(32) %other, ptr noundef nonnull align 4 dereferenceable(4) %ec) #1 align 2 {
entry:
  %this.addr = alloca ptr, align 8
  %other.addr = alloca ptr, align 8
  %ec.addr = alloca ptr, align 8
  %i = alloca i32, align 4
  store ptr %this, ptr %this.addr, align 8
  store ptr %other, ptr %other.addr, align 8
  store ptr %ec, ptr %ec.addr, align 8
  %this1 = load ptr, ptr %this.addr, align 8
  %0 = load ptr, ptr %other.addr, align 8
  %count = getelementptr inbounds %"class.icu_75::UVector32", ptr %0, i32 0, i32 1
  %1 = load i32, ptr %count, align 8
  %2 = load ptr, ptr %ec.addr, align 8
  %call = call noundef signext i8 @_ZN6icu_759UVector3214ensureCapacityEiR10UErrorCode(ptr noundef nonnull align 8 dereferenceable(32) %this1, i32 noundef %1, ptr noundef nonnull align 4 dereferenceable(4) %2)
  %tobool = icmp ne i8 %call, 0
  br i1 %tobool, label %if.then, label %if.end

if.then:                                          ; preds = %entry
  %3 = load ptr, ptr %other.addr, align 8
  %count2 = getelementptr inbounds %"class.icu_75::UVector32", ptr %3, i32 0, i32 1
  %4 = load i32, ptr %count2, align 8
  call void @_ZN6icu_759UVector327setSizeEi(ptr noundef nonnull align 8 dereferenceable(32) %this1, i32 noundef %4)
  store i32 0, ptr %i, align 4
  br label %for.cond

for.cond:                                         ; preds = %for.inc, %if.then
  %5 = load i32, ptr %i, align 4
  %6 = load ptr, ptr %other.addr, align 8
  %count3 = getelementptr inbounds %"class.icu_75::UVector32", ptr %6, i32 0, i32 1
  %7 = load i32, ptr %count3, align 8
  %cmp = icmp slt i32 %5, %7
  br i1 %cmp, label %for.body, label %for.end

for.body:                                         ; preds = %for.cond
  %8 = load ptr, ptr %other.addr, align 8
  %elements = getelementptr inbounds %"class.icu_75::UVector32", ptr %8, i32 0, i32 4
  %9 = load ptr, ptr %elements, align 8
  %10 = load i32, ptr %i, align 4
  %idxprom = sext i32 %10 to i64
  %arrayidx = getelementptr inbounds i32, ptr %9, i64 %idxprom
  %11 = load i32, ptr %arrayidx, align 4
  %elements4 = getelementptr inbounds %"class.icu_75::UVector32", ptr %this1, i32 0, i32 4
  %12 = load ptr, ptr %elements4, align 8
  %13 = load i32, ptr %i, align 4
  %idxprom5 = sext i32 %13 to i64
  %arrayidx6 = getelementptr inbounds i32, ptr %12, i64 %idxprom5
  store i32 %11, ptr %arrayidx6, align 4
  br label %for.inc

for.inc:                                          ; preds = %for.body
  %14 = load i32, ptr %i, align 4
  %inc = add nsw i32 %14, 1
  store i32 %inc, ptr %i, align 4
  br label %for.cond, !llvm.loop !4

for.end:                                          ; preds = %for.cond
  br label %if.end

if.end:                                           ; preds = %for.end, %entry
  ret void
}