; Function Attrs: mustprogress uwtable
define void @_ZN6icu_759UVector326assignERKS0_R10UErrorCode(ptr nocapture noundef nonnull align 8 dereferenceable(32) %this, ptr nocapture noundef nonnull readonly align 8 dereferenceable(32) %other, ptr nocapture noundef nonnull align 4 dereferenceable(4) %ec) local_unnamed_addr #1 align 2 {
entry:
  %count = getelementptr inbounds i8, ptr %other, i64 8
  %0 = load i32, ptr %count, align 8
  %cmp.i = icmp slt i32 %0, 0
  %capacity.i = getelementptr inbounds i8, ptr %this, i64 12
  %1 = load i32, ptr %capacity.i, align 4
  %cmp2.not.i = icmp slt i32 %1, %0
  %or.cond.i = select i1 %cmp.i, i1 true, i1 %cmp2.not.i
  br i1 %or.cond.i, label %if.else.i, label %if.end.i

if.else.i:                                        ; preds = %entry
  %2 = load i32, ptr %ec, align 4
  %cmp.i.i.i = icmp slt i32 %2, 1
  br i1 %cmp.i.i.i, label %if.end.i.i, label %if.end

if.end.i.i:                                       ; preds = %if.else.i
  br i1 %cmp.i, label %if.end.sink.split, label %if.end3.i.i

if.end3.i.i:                                      ; preds = %if.end.i.i
  br i1 %cmp2.not.i, label %if.end6.i.i, label %if.end.i

if.end6.i.i:                                      ; preds = %if.end3.i.i
  %maxCapacity.i.i = getelementptr inbounds i8, ptr %this, i64 16
  %3 = load i32, ptr %maxCapacity.i.i, align 8
  %cmp7.i.i = icmp sgt i32 %3, 0
  %cmp9.i.i = icmp slt i32 %3, %0
  %or.cond.i.i = and i1 %cmp7.i.i, %cmp9.i.i
  br i1 %or.cond.i.i, label %if.end.sink.split, label %if.end11.i.i

if.end11.i.i:                                     ; preds = %if.end6.i.i
  %cmp13.i.i = icmp sgt i32 %1, 1073741823
  br i1 %cmp13.i.i, label %if.end.sink.split, label %if.end15.i.i

if.end15.i.i:                                     ; preds = %if.end11.i.i
  %mul.i.i = shl nsw i32 %1, 1
  %spec.select.i.i = tail call i32 @llvm.smax.i32(i32 %mul.i.i, i32 %0)
  %4 = tail call i32 @llvm.smin.i32(i32 %spec.select.i.i, i32 %3)
  %newCap.1.i.i = select i1 %cmp7.i.i, i32 %4, i32 %spec.select.i.i
  %cmp28.i.i = icmp sgt i32 %newCap.1.i.i, 536870911
  br i1 %cmp28.i.i, label %if.end.sink.split, label %if.end30.i.i

if.end30.i.i:                                     ; preds = %if.end15.i.i
  %elements.i.i = getelementptr inbounds i8, ptr %this, i64 24
  %5 = load ptr, ptr %elements.i.i, align 8
  %conv.i.i = zext nneg i32 %newCap.1.i.i to i64
  %mul31.i.i = shl nuw nsw i64 %conv.i.i, 2
  %call32.i.i = tail call ptr @uprv_realloc_75(ptr noundef %5, i64 noundef %mul31.i.i) #16
  %cmp33.i.i = icmp eq ptr %call32.i.i, null
  br i1 %cmp33.i.i, label %if.end.sink.split, label %if.then

if.then:                                          ; preds = %if.end30.i.i
  store ptr %call32.i.i, ptr %elements.i.i, align 8
  store i32 %newCap.1.i.i, ptr %capacity.i, align 4
  %.pre = load i32, ptr %count, align 8
  %cmp.i7 = icmp slt i32 %.pre, 0
  br i1 %cmp.i7, label %if.end, label %if.end.i

if.end.i:                                         ; preds = %entry, %if.end3.i.i, %if.then
  %6 = phi i32 [ %.pre, %if.then ], [ %0, %if.end3.i.i ], [ %0, %entry ]
  %7 = phi i32 [ %newCap.1.i.i, %if.then ], [ %1, %if.end3.i.i ], [ %1, %entry ]
  %count.i = getelementptr inbounds i8, ptr %this, i64 8
  %8 = load i32, ptr %count.i, align 8
  %cmp2.i = icmp slt i32 %8, %6
  br i1 %cmp2.i, label %if.then3.i, label %if.end8.i

if.then3.i:                                       ; preds = %if.end.i
  %cmp2.not.i.i = icmp slt i32 %7, %6
  br i1 %cmp2.not.i.i, label %if.end6.i.i.i, label %if.end5.i

if.end6.i.i.i:                                    ; preds = %if.then3.i
  %maxCapacity.i.i.i = getelementptr inbounds i8, ptr %this, i64 16
  %9 = load i32, ptr %maxCapacity.i.i.i, align 8
  %cmp7.i.i.i = icmp sgt i32 %9, 0
  %cmp9.i.i.i = icmp slt i32 %9, %6
  %or.cond.i.i.i = and i1 %cmp7.i.i.i, %cmp9.i.i.i
  %cmp13.i.i.i = icmp sgt i32 %7, 1073741823
  %or.cond.i8 = or i1 %cmp13.i.i.i, %or.cond.i.i.i
  br i1 %or.cond.i8, label %_ZN6icu_759UVector327setSizeEi.exit, label %if.end15.i.i.i

if.end15.i.i.i:                                   ; preds = %if.end6.i.i.i
  %mul.i.i.i = shl nsw i32 %7, 1
  %spec.select.i.i.i = tail call i32 @llvm.smax.i32(i32 %mul.i.i.i, i32 %6)
  %10 = tail call i32 @llvm.smin.i32(i32 %spec.select.i.i.i, i32 %9)
  %newCap.1.i.i.i = select i1 %cmp7.i.i.i, i32 %10, i32 %spec.select.i.i.i
  %cmp28.i.i.i = icmp sgt i32 %newCap.1.i.i.i, 536870911
  br i1 %cmp28.i.i.i, label %_ZN6icu_759UVector327setSizeEi.exit, label %if.end30.i.i.i

if.end30.i.i.i:                                   ; preds = %if.end15.i.i.i
  %elements.i.i.i = getelementptr inbounds i8, ptr %this, i64 24
  %11 = load ptr, ptr %elements.i.i.i, align 8
  %conv.i.i.i = zext nneg i32 %newCap.1.i.i.i to i64
  %mul31.i.i.i = shl nuw nsw i64 %conv.i.i.i, 2
  %call32.i.i.i = tail call ptr @uprv_realloc_75(ptr noundef %11, i64 noundef %mul31.i.i.i) #16
  %cmp33.i.i.i = icmp eq ptr %call32.i.i.i, null
  br i1 %cmp33.i.i.i, label %_ZN6icu_759UVector327setSizeEi.exit, label %if.end35.i.i.i

if.end35.i.i.i:                                   ; preds = %if.end30.i.i.i
  store ptr %call32.i.i.i, ptr %elements.i.i.i, align 8
  store i32 %newCap.1.i.i.i, ptr %capacity.i, align 4
  %.pre.i = load i32, ptr %count.i, align 8
  br label %if.end5.i

if.end5.i:                                        ; preds = %if.end35.i.i.i, %if.then3.i
  %12 = phi i32 [ %.pre.i, %if.end35.i.i.i ], [ %8, %if.then3.i ]
  %cmp79.i = icmp slt i32 %12, %6
  br i1 %cmp79.i, label %for.body.lr.ph.i, label %if.end8.i

for.body.lr.ph.i:                                 ; preds = %if.end5.i
  %elements.i = getelementptr inbounds i8, ptr %this, i64 24
  %13 = sext i32 %12 to i64
  %wide.trip.count.i = zext nneg i32 %6 to i64
  br label %for.body.i

for.body.i:                                       ; preds = %for.body.i, %for.body.lr.ph.i
  %indvars.iv.i = phi i64 [ %13, %for.body.lr.ph.i ], [ %indvars.iv.next.i, %for.body.i ]
  %14 = load ptr, ptr %elements.i, align 8
  %arrayidx.i = getelementptr inbounds i32, ptr %14, i64 %indvars.iv.i
  store i32 0, ptr %arrayidx.i, align 4
  %indvars.iv.next.i = add nsw i64 %indvars.iv.i, 1
  %exitcond.not.i = icmp eq i64 %indvars.iv.next.i, %wide.trip.count.i
  br i1 %exitcond.not.i, label %if.end8.i, label %for.body.i, !llvm.loop !4

if.end8.i:                                        ; preds = %for.body.i, %if.end5.i, %if.end.i
  store i32 %6, ptr %count.i, align 8
  br label %_ZN6icu_759UVector327setSizeEi.exit

_ZN6icu_759UVector327setSizeEi.exit:              ; preds = %if.end6.i.i.i, %if.end15.i.i.i, %if.end30.i.i.i, %if.end8.i
  %.pr = load i32, ptr %count, align 8
  %cmp11 = icmp sgt i32 %.pr, 0
  br i1 %cmp11, label %for.body.lr.ph, label %if.end

for.body.lr.ph:                                   ; preds = %_ZN6icu_759UVector327setSizeEi.exit
  %elements = getelementptr inbounds i8, ptr %other, i64 24
  %elements4 = getelementptr inbounds i8, ptr %this, i64 24
  br label %for.body

for.body:                                         ; preds = %for.body.lr.ph, %for.body
  %indvars.iv = phi i64 [ 0, %for.body.lr.ph ], [ %indvars.iv.next, %for.body ]
  %15 = load ptr, ptr %elements, align 8
  %arrayidx = getelementptr inbounds i32, ptr %15, i64 %indvars.iv
  %16 = load i32, ptr %arrayidx, align 4
  %17 = load ptr, ptr %elements4, align 8
  %arrayidx6 = getelementptr inbounds i32, ptr %17, i64 %indvars.iv
  store i32 %16, ptr %arrayidx6, align 4
  %indvars.iv.next = add nuw nsw i64 %indvars.iv, 1
  %18 = load i32, ptr %count, align 8
  %19 = sext i32 %18 to i64
  %cmp = icmp slt i64 %indvars.iv.next, %19
  br i1 %cmp, label %for.body, label %if.end, !llvm.loop !6

if.end.sink.split:                                ; preds = %if.end30.i.i, %if.end15.i.i, %if.end11.i.i, %if.end6.i.i, %if.end.i.i
  %.sink = phi i32 [ 1, %if.end.i.i ], [ 15, %if.end6.i.i ], [ 1, %if.end11.i.i ], [ 1, %if.end15.i.i ], [ 7, %if.end30.i.i ]
  store i32 %.sink, ptr %ec, align 4
  br label %if.end

if.end:                                           ; preds = %for.body, %if.end.sink.split, %if.then, %_ZN6icu_759UVector327setSizeEi.exit, %if.else.i
  ret void
}